target datalayout = "e-m:e-p270:32:32-p271:32:32-p272:64:64-i64:64-i128:128-f80:128-n8:16:32:64-S128"
target triple = "x86_64-pc-linux-gnu"

%struct.PJconsts = type { ptr, ptr, ptr, ptr, ptr, ptr, ptr, ptr, ptr, ptr, ptr, ptr, i32, ptr, ptr, ptr, ptr, ptr, ptr, ptr, ptr, double, double, double, double, double, double, double, double, double, double, double, double, double, double, double, double, double, double, double, double, double, double, i32, i32, i32, i32, i32, i32, i32, i32, i32, i32, i32, ptr, ptr, ptr, ptr, ptr, ptr, double, double, double, double, double, double, double, double, double, double, double, i32, [7 x double], i32, ptr, ptr, double, double, i32, [4 x i8], %"class.std::shared_ptr", i8, double, i8, %"class.std::__cxx11::basic_string", %"class.std::__cxx11::basic_string", %"class.std::__cxx11::basic_string", i8, %"class.std::vector", i32, %"class.std::vector.3", i32, i8, i8, i8, ptr }
%"class.std::shared_ptr" = type { %"class.std::__shared_ptr" }
%"class.std::__shared_ptr" = type { ptr, %"class.std::__shared_count" }
%"class.std::__shared_count" = type { ptr }
%"class.std::__cxx11::basic_string" = type { %"struct.std::__cxx11::basic_string<char>::_Alloc_hider", i64, %union.anon }
%"struct.std::__cxx11::basic_string<char>::_Alloc_hider" = type { ptr }
%union.anon = type { i64, [8 x i8] }
%"class.std::vector" = type { %"struct.std::_Vector_base" }
%"struct.std::_Vector_base" = type { %"struct.std::_Vector_base<osgeo::proj::operation::GridDescription, std::allocator<osgeo::proj::operation::GridDescription>>::_Vector_impl" }
%"struct.std::_Vector_base<osgeo::proj::operation::GridDescription, std::allocator<osgeo::proj::operation::GridDescription>>::_Vector_impl" = type { %"struct.std::_Vector_base<osgeo::proj::operation::GridDescription, std::allocator<osgeo::proj::operation::GridDescription>>::_Vector_impl_data" }
%"struct.std::_Vector_base<osgeo::proj::operation::GridDescription, std::allocator<osgeo::proj::operation::GridDescription>>::_Vector_impl_data" = type { ptr, ptr, ptr }
%"class.std::vector.3" = type { %"struct.std::_Vector_base.4" }
%"struct.std::_Vector_base.4" = type { %"struct.std::_Vector_base<PJCoordOperation, std::allocator<PJCoordOperation>>::_Vector_impl" }
%"struct.std::_Vector_base<PJCoordOperation, std::allocator<PJCoordOperation>>::_Vector_impl" = type { %"struct.std::_Vector_base<PJCoordOperation, std::allocator<PJCoordOperation>>::_Vector_impl_data" }
%"struct.std::_Vector_base<PJCoordOperation, std::allocator<PJCoordOperation>>::_Vector_impl_data" = type { ptr, ptr, ptr }
%"struct.(anonymous namespace)::pj_eqdc_data" = type { double, double, double, double, double, double, ptr, i32 }
%struct.PJ_LP = type { double, double }
%struct.PJ_XY = type { double, double }

; Function Attrs: mustprogress uwtable
define internal { double, double } @_ZL14eqdc_e_forward5PJ_LPP8PJconsts(double %0, double %1, ptr noundef %2) #0 {
  %4 = alloca %struct.PJ_XY, align 8
  %5 = alloca %struct.PJ_LP, align 8
  %6 = alloca ptr, align 8
  %7 = alloca ptr, align 8
  %8 = alloca double, align 8
  %9 = getelementptr inbounds nuw { double, double }, ptr %5, i32 0, i32 0
  store double %0, ptr %9, align 8
  %10 = getelementptr inbounds nuw { double, double }, ptr %5, i32 0, i32 1
  store double %1, ptr %10, align 8
  store ptr %2, ptr %6, align 8, !tbaa !3
  call void @llvm.memset.p0.i64(ptr align 8 %4, i8 0, i64 16, i1 false)
  call void @llvm.lifetime.start.p0(i64 8, ptr %7) #7
  %11 = load ptr, ptr %6, align 8, !tbaa !3
  %12 = getelementptr inbounds nuw %struct.PJconsts, ptr %11, i32 0, i32 11
  %13 = load ptr, ptr %12, align 8, !tbaa !43
  store ptr %13, ptr %7, align 8, !tbaa !41
  %14 = load ptr, ptr %7, align 8, !tbaa !41
  %15 = getelementptr inbounds nuw %"struct.(anonymous namespace)::pj_eqdc_data", ptr %14, i32 0, i32 5
  %16 = load double, ptr %15, align 8, !tbaa !59
  %17 = load ptr, ptr %7, align 8, !tbaa !41
  %18 = getelementptr inbounds nuw %"struct.(anonymous namespace)::pj_eqdc_data", ptr %17, i32 0, i32 7
  %19 = load i32, ptr %18, align 8, !tbaa !58
  %20 = icmp ne i32 %19, 0
  br i1 %20, label %21, label %34

21:                                               ; preds = %3
  %22 = getelementptr inbounds nuw %struct.PJ_LP, ptr %5, i32 0, i32 1
  %23 = load double, ptr %22, align 8, !tbaa !68
  %24 = getelementptr inbounds nuw %struct.PJ_LP, ptr %5, i32 0, i32 1
  %25 = load double, ptr %24, align 8, !tbaa !68
  %26 = call double @sin(double noundef %25) #7, !tbaa !54
  %27 = getelementptr inbounds nuw %struct.PJ_LP, ptr %5, i32 0, i32 1
  %28 = load double, ptr %27, align 8, !tbaa !68
  %29 = call double @cos(double noundef %28) #7, !tbaa !54
  %30 = load ptr, ptr %7, align 8, !tbaa !41
  %31 = getelementptr inbounds nuw %"struct.(anonymous namespace)::pj_eqdc_data", ptr %30, i32 0, i32 6
  %32 = load ptr, ptr %31, align 8, !tbaa !53
  %33 = call noundef double @_Z7pj_mlfndddPKd(double noundef %23, double noundef %26, double noundef %29, ptr noundef %32)
  br label %37

34:                                               ; preds = %3
  %35 = getelementptr inbounds nuw %struct.PJ_LP, ptr %5, i32 0, i32 1
  %36 = load double, ptr %35, align 8, !tbaa !68
  br label %37

37:                                               ; preds = %34, %21
  %38 = phi double [ %33, %21 ], [ %36, %34 ]
  %39 = fsub double %16, %38
  %40 = load ptr, ptr %7, align 8, !tbaa !41
  %41 = getelementptr inbounds nuw %"struct.(anonymous namespace)::pj_eqdc_data", ptr %40, i32 0, i32 3
  store double %39, ptr %41, align 8, !tbaa !67
  call void @llvm.lifetime.start.p0(i64 8, ptr %8) #7
  %42 = getelementptr inbounds nuw %struct.PJ_LP, ptr %5, i32 0, i32 0
  %43 = load double, ptr %42, align 8, !tbaa !70
  %44 = load ptr, ptr %7, align 8, !tbaa !41
  %45 = getelementptr inbounds nuw %"struct.(anonymous namespace)::pj_eqdc_data", ptr %44, i32 0, i32 2
  %46 = load double, ptr %45, align 8, !tbaa !56
  %47 = fmul double %43, %46
  store double %47, ptr %8, align 8, !tbaa !55
  %48 = load ptr, ptr %7, align 8, !tbaa !41
  %49 = getelementptr inbounds nuw %"struct.(anonymous namespace)::pj_eqdc_data", ptr %48, i32 0, i32 3
  %50 = load double, ptr %49, align 8, !tbaa !67
  %51 = load double, ptr %8, align 8, !tbaa !55
  %52 = call double @sin(double noundef %51) #7, !tbaa !54
  %53 = fmul double %50, %52
  %54 = getelementptr inbounds nuw %struct.PJ_XY, ptr %4, i32 0, i32 0
  store double %53, ptr %54, align 8, !tbaa !64
  %55 = load ptr, ptr %7, align 8, !tbaa !41
  %56 = getelementptr inbounds nuw %"struct.(anonymous namespace)::pj_eqdc_data", ptr %55, i32 0, i32 4
  %57 = load double, ptr %56, align 8, !tbaa !61
  %58 = load ptr, ptr %7, align 8, !tbaa !41
  %59 = getelementptr inbounds nuw %"struct.(anonymous namespace)::pj_eqdc_data", ptr %58, i32 0, i32 3
  %60 = load double, ptr %59, align 8, !tbaa !67
  %61 = load double, ptr %8, align 8, !tbaa !55
  %62 = call double @cos(double noundef %61) #7, !tbaa !54
  %63 = fneg double %60
  %64 = call double @llvm.fmuladd.f64(double %63, double %62, double %57)
  %65 = getelementptr inbounds nuw %struct.PJ_XY, ptr %4, i32 0, i32 1
  store double %64, ptr %65, align 8, !tbaa !66
  call void @llvm.lifetime.end.p0(i64 8, ptr %8) #7
  call void @llvm.lifetime.end.p0(i64 8, ptr %7) #7
  %66 = load { double, double }, ptr %4, align 8
  ret { double, double } %66
}