; Function Attrs: mustprogress uwtable
define internal { double, double } @_ZL14eqdc_e_forward5PJ_LPP8PJconsts(double %0, double %1, ptr noundef readonly captures(none) %2) #0 {
  %4 = getelementptr inbounds nuw i8, ptr %2, i64 88
  %5 = load ptr, ptr %4, align 8, !tbaa !40
  %6 = getelementptr inbounds nuw i8, ptr %5, i64 40
  %7 = load double, ptr %6, align 8, !tbaa !54
  %8 = getelementptr inbounds nuw i8, ptr %5, i64 56
  %9 = load i32, ptr %8, align 8, !tbaa !53
  %.not = icmp eq i32 %9, 0
  br i1 %.not, label %16, label %10

10:                                               ; preds = %3
  %11 = tail call double @sin(double noundef %1) #7, !tbaa !50
  %12 = tail call double @cos(double noundef %1) #7, !tbaa !50
  %13 = getelementptr inbounds nuw i8, ptr %5, i64 48
  %14 = load ptr, ptr %13, align 8, !tbaa !48
  %15 = tail call noundef double @_Z7pj_mlfndddPKd(double noundef %1, double noundef %11, double noundef %12, ptr noundef %14)
  br label %16

16:                                               ; preds = %3, %10
  %17 = phi double [ %15, %10 ], [ %1, %3 ]
  %18 = fsub double %7, %17
  %19 = getelementptr inbounds nuw i8, ptr %5, i64 24
  store double %18, ptr %19, align 8, !tbaa !59
  %20 = getelementptr inbounds nuw i8, ptr %5, i64 16
  %21 = load double, ptr %20, align 8, !tbaa !51
  %22 = fmul double %0, %21
  %23 = tail call double @sin(double noundef %22) #7, !tbaa !50
  %24 = fmul double %18, %23
  %25 = getelementptr inbounds nuw i8, ptr %5, i64 32
  %26 = load double, ptr %25, align 8, !tbaa !56
  %27 = tail call double @cos(double noundef %22) #7, !tbaa !50
  %28 = fneg double %18
  %29 = tail call double @llvm.fmuladd.f64(double %28, double %27, double %26)
  %.fca.0.insert = insertvalue { double, double } poison, double %24, 0
  %.fca.1.insert = insertvalue { double, double } %.fca.0.insert, double %29, 1
  ret { double, double } %.fca.1.insert
}